target datalayout = "e-m:e-p270:32:32-p271:32:32-p272:64:64-i64:64-i128:128-f80:128-n8:16:32:64-S128"
target triple = "x86_64-pc-linux-gnu"

%struct.mbedtls_sha3_context = type { [25 x i64], i32, i16, i16 }

@test_data = internal constant [2 x [4 x i8]] [[4 x i8] zeroinitializer, [4 x i8] c"abc\00"], align 1
@test_data_len = internal constant [2 x i64] [i64 0, i64 3], align 16
@.str.5 = private unnamed_addr constant [29 x i8] c"  %s test %d error code: %d\0A\00", align 1
@test_hash_sha3_224 = internal constant [2 x [28 x i8]] [[28 x i8] c"kN\03B6g\DB\B7;n\15EO\0E\B1\AB\D4Y\7F\9A\1B\07\8E?[Zk\C7", [28 x i8] c"\E6B\82L?\8C\F2J\D0\924\EE}<vo\C9\A3\A5\16\8D\0C\94\ADs\B4o\DF"], align 16
@test_hash_sha3_256 = internal constant [2 x [32 x i8]] [[32 x i8] c"\A7\FF\C6\F8\BF\1E\D7fQ\C1GV\A0a\D6b\F5\80\FFM\E4;I\FA\82\D8\0AK\80\F8CJ", [32 x i8] c":\98]\A7O\E2%\B2\04\\\17-k\D3\90\BD\85_\08n>\9DR[F\BF\E2E\11C\152"], align 16
@.str.6 = private unnamed_addr constant [21 x i8] c"  %s test %d failed\0A\00", align 1
@.str.7 = private unnamed_addr constant [21 x i8] c"  %s test %d passed\0A\00", align 1

; Function Attrs: nounwind uwtable
define hidden void @mbedtls_sha3_free(ptr noundef %0) #0 {
  %2 = alloca ptr, align 8
  store ptr %0, ptr %2, align 8, !tbaa !3
  %3 = load ptr, ptr %2, align 8, !tbaa !3
  %4 = icmp eq ptr %3, null
  br i1 %4, label %5, label %6

5:                                                ; preds = %1
  br label %8

6:                                                ; preds = %1
  %7 = load ptr, ptr %2, align 8, !tbaa !3
  call void @mbedtls_platform_zeroize(ptr noundef %7, i64 noundef 208)
  br label %8

8:                                                ; preds = %6, %5
  ret void
}

; Function Attrs: nounwind uwtable
define hidden i32 @mbedtls_sha3_starts(ptr noundef %0, i32 noundef %1) #0 {
  %3 = alloca i32, align 4
  %4 = alloca ptr, align 8
  %5 = alloca i32, align 4
  store ptr %0, ptr %4, align 8, !tbaa !3
  store i32 %1, ptr %5, align 4, !tbaa !9
  %6 = load i32, ptr %5, align 4, !tbaa !9
  switch i32 %6, label %27 [
    i32 1, label %7
    i32 2, label %12
    i32 3, label %17
    i32 4, label %22
  ]

7:                                                ; preds = %2
  %8 = load ptr, ptr %4, align 8, !tbaa !3
  %9 = getelementptr inbounds nuw %struct.mbedtls_sha3_context, ptr %8, i32 0, i32 2
  store i16 28, ptr %9, align 4, !tbaa !13
  %10 = load ptr, ptr %4, align 8, !tbaa !3
  %11 = getelementptr inbounds nuw %struct.mbedtls_sha3_context, ptr %10, i32 0, i32 3
  store i16 144, ptr %11, align 2, !tbaa !15
  br label %28

12:                                               ; preds = %2
  %13 = load ptr, ptr %4, align 8, !tbaa !3
  %14 = getelementptr inbounds nuw %struct.mbedtls_sha3_context, ptr %13, i32 0, i32 2
  store i16 32, ptr %14, align 4, !tbaa !13
  %15 = load ptr, ptr %4, align 8, !tbaa !3
  %16 = getelementptr inbounds nuw %struct.mbedtls_sha3_context, ptr %15, i32 0, i32 3
  store i16 136, ptr %16, align 2, !tbaa !15
  br label %28

17:                                               ; preds = %2
  %18 = load ptr, ptr %4, align 8, !tbaa !3
  %19 = getelementptr inbounds nuw %struct.mbedtls_sha3_context, ptr %18, i32 0, i32 2
  store i16 48, ptr %19, align 4, !tbaa !13
  %20 = load ptr, ptr %4, align 8, !tbaa !3
  %21 = getelementptr inbounds nuw %struct.mbedtls_sha3_context, ptr %20, i32 0, i32 3
  store i16 104, ptr %21, align 2, !tbaa !15
  br label %28

22:                                               ; preds = %2
  %23 = load ptr, ptr %4, align 8, !tbaa !3
  %24 = getelementptr inbounds nuw %struct.mbedtls_sha3_context, ptr %23, i32 0, i32 2
  store i16 64, ptr %24, align 4, !tbaa !13
  %25 = load ptr, ptr %4, align 8, !tbaa !3
  %26 = getelementptr inbounds nuw %struct.mbedtls_sha3_context, ptr %25, i32 0, i32 3
  store i16 72, ptr %26, align 2, !tbaa !15
  br label %28

27:                                               ; preds = %2
  store i32 -118, ptr %3, align 4
  br label %34

28:                                               ; preds = %22, %17, %12, %7
  %29 = load ptr, ptr %4, align 8, !tbaa !3
  %30 = getelementptr inbounds nuw %struct.mbedtls_sha3_context, ptr %29, i32 0, i32 0
  %31 = getelementptr inbounds [25 x i64], ptr %30, i64 0, i64 0
  call void @llvm.memset.p0.i64(ptr align 8 %31, i8 0, i64 200, i1 false)
  %32 = load ptr, ptr %4, align 8, !tbaa !3
  %33 = getelementptr inbounds nuw %struct.mbedtls_sha3_context, ptr %32, i32 0, i32 1
  store i32 0, ptr %33, align 8, !tbaa !16
  store i32 0, ptr %3, align 4
  br label %34

34:                                               ; preds = %28, %27
  %35 = load i32, ptr %3, align 4
  ret i32 %35
}

; Function Attrs: nounwind uwtable
define hidden void @mbedtls_sha3_init(ptr noundef %0) #0 {
  %2 = alloca ptr, align 8
  store ptr %0, ptr %2, align 8, !tbaa !3
  %3 = load ptr, ptr %2, align 8, !tbaa !3
  call void @llvm.memset.p0.i64(ptr align 8 %3, i8 0, i64 208, i1 false)
  ret void
}

; Function Attrs: nounwind uwtable
define hidden i32 @mbedtls_sha3(i32 noundef %0, ptr noundef %1, i64 noundef %2, ptr noundef %3, i64 noundef %4) #0 {
  %6 = alloca i32, align 4
  %7 = alloca ptr, align 8
  %8 = alloca i64, align 8
  %9 = alloca ptr, align 8
  %10 = alloca i64, align 8
  %11 = alloca i32, align 4
  %12 = alloca %struct.mbedtls_sha3_context, align 8
  store i32 %0, ptr %6, align 4, !tbaa !9
  store ptr %1, ptr %7, align 8, !tbaa !17
  store i64 %2, ptr %8, align 8, !tbaa !19
  store ptr %3, ptr %9, align 8, !tbaa !17
  store i64 %4, ptr %10, align 8, !tbaa !19
  call void @llvm.lifetime.start.p0(i64 4, ptr %11) #7
  store i32 -110, ptr %11, align 4, !tbaa !9
  call void @llvm.lifetime.start.p0(i64 208, ptr %12) #7
  call void @mbedtls_sha3_init(ptr noundef %12)
  %13 = load i32, ptr %6, align 4, !tbaa !9
  %14 = call i32 @mbedtls_sha3_starts(ptr noundef %12, i32 noundef %13)
  store i32 %14, ptr %11, align 4, !tbaa !9
  %15 = icmp ne i32 %14, 0
  br i1 %15, label %16, label %17

16:                                               ; preds = %5
  br label %30

17:                                               ; preds = %5
  %18 = load ptr, ptr %7, align 8, !tbaa !17
  %19 = load i64, ptr %8, align 8, !tbaa !19
  %20 = call i32 @mbedtls_sha3_update(ptr noundef %12, ptr noundef %18, i64 noundef %19)
  store i32 %20, ptr %11, align 4, !tbaa !9
  %21 = icmp ne i32 %20, 0
  br i1 %21, label %22, label %23

22:                                               ; preds = %17
  br label %30

23:                                               ; preds = %17
  %24 = load ptr, ptr %9, align 8, !tbaa !17
  %25 = load i64, ptr %10, align 8, !tbaa !19
  %26 = call i32 @mbedtls_sha3_finish(ptr noundef %12, ptr noundef %24, i64 noundef %25)
  store i32 %26, ptr %11, align 4, !tbaa !9
  %27 = icmp ne i32 %26, 0
  br i1 %27, label %28, label %29

28:                                               ; preds = %23
  br label %30

29:                                               ; preds = %23
  br label %30

30:                                               ; preds = %29, %28, %22, %16
  call void @mbedtls_sha3_free(ptr noundef %12)
  %31 = load i32, ptr %11, align 4, !tbaa !9
  call void @llvm.lifetime.end.p0(i64 208, ptr %12) #7
  call void @llvm.lifetime.end.p0(i64 4, ptr %11) #7
  ret i32 %31
}

; Function Attrs: nounwind uwtable
define internal i32 @mbedtls_sha3_kat_test(i32 noundef %0, ptr noundef %1, i32 noundef %2, i32 noundef %3) #0 {
  %5 = alloca i32, align 4
  %6 = alloca i32, align 4
  %7 = alloca ptr, align 8
  %8 = alloca i32, align 4
  %9 = alloca i32, align 4
  %10 = alloca [64 x i8], align 16
  %11 = alloca i32, align 4
  %12 = alloca i32, align 4
  store i32 %0, ptr %6, align 4, !tbaa !9
  store ptr %1, ptr %7, align 8, !tbaa !17
  store i32 %2, ptr %8, align 4, !tbaa !9
  store i32 %3, ptr %9, align 4, !tbaa !9
  call void @llvm.lifetime.start.p0(i64 64, ptr %10) #7
  call void @llvm.lifetime.start.p0(i64 4, ptr %11) #7
  %13 = load i32, ptr %8, align 4, !tbaa !9
  %14 = load i32, ptr %9, align 4, !tbaa !9
  %15 = sext i32 %14 to i64
  %16 = getelementptr inbounds [2 x [4 x i8]], ptr @test_data, i64 0, i64 %15
  %17 = getelementptr inbounds [4 x i8], ptr %16, i64 0, i64 0
  %18 = load i32, ptr %9, align 4, !tbaa !9
  %19 = sext i32 %18 to i64
  %20 = getelementptr inbounds [2 x i64], ptr @test_data_len, i64 0, i64 %19
  %21 = load i64, ptr %20, align 8, !tbaa !19
  %22 = getelementptr inbounds [64 x i8], ptr %10, i64 0, i64 0
  %23 = call i32 @mbedtls_sha3(i32 noundef %13, ptr noundef %17, i64 noundef %21, ptr noundef %22, i64 noundef 64)
  store i32 %23, ptr %11, align 4, !tbaa !9
  %24 = load i32, ptr %11, align 4, !tbaa !9
  %25 = icmp ne i32 %24, 0
  br i1 %25, label %26, label %36

26:                                               ; preds = %4
  %27 = load i32, ptr %6, align 4, !tbaa !9
  %28 = icmp ne i32 %27, 0
  br i1 %28, label %29, label %34

29:                                               ; preds = %26
  %30 = load ptr, ptr %7, align 8, !tbaa !17
  %31 = load i32, ptr %9, align 4, !tbaa !9
  %32 = load i32, ptr %11, align 4, !tbaa !9
  %33 = call i32 (ptr, ...) @printf(ptr noundef @.str.5, ptr noundef %30, i32 noundef %31, i32 noundef %32)
  br label %34

34:                                               ; preds = %29, %26
  %35 = load i32, ptr %11, align 4, !tbaa !9
  store i32 %35, ptr %5, align 4
  store i32 1, ptr %12, align 4
  br label %86

36:                                               ; preds = %4
  %37 = load i32, ptr %8, align 4, !tbaa !9
  switch i32 %37, label %66 [
    i32 1, label %38
    i32 2, label %45
    i32 3, label %52
    i32 4, label %59
  ]

38:                                               ; preds = %36
  %39 = getelementptr inbounds [64 x i8], ptr %10, i64 0, i64 0
  %40 = load i32, ptr %9, align 4, !tbaa !9
  %41 = sext i32 %40 to i64
  %42 = getelementptr inbounds [2 x [28 x i8]], ptr @test_hash_sha3_224, i64 0, i64 %41
  %43 = getelementptr inbounds [28 x i8], ptr %42, i64 0, i64 0
  %44 = call i32 @memcmp(ptr noundef %39, ptr noundef %43, i64 noundef 28) #8
  store i32 %44, ptr %11, align 4, !tbaa !9
  br label %67

45:                                               ; preds = %36
  %46 = getelementptr inbounds [64 x i8], ptr %10, i64 0, i64 0
  %47 = load i32, ptr %9, align 4, !tbaa !9
  %48 = sext i32 %47 to i64
  %49 = getelementptr inbounds [2 x [32 x i8]], ptr @test_hash_sha3_256, i64 0, i64 %48
  %50 = getelementptr inbounds [32 x i8], ptr %49, i64 0, i64 0
  %51 = call i32 @memcmp(ptr noundef %46, ptr noundef %50, i64 noundef 32) #8
  store i32 %51, ptr %11, align 4, !tbaa !9
  br label %67

52:                                               ; preds = %36
  %53 = getelementptr inbounds [64 x i8], ptr %10, i64 0, i64 0
  %54 = load i32, ptr %9, align 4, !tbaa !9
  %55 = sext i32 %54 to i64
  %56 = getelementptr inbounds [2 x [48 x i8]], ptr @test_hash_sha3_384, i64 0, i64 %55
  %57 = getelementptr inbounds [48 x i8], ptr %56, i64 0, i64 0
  %58 = call i32 @memcmp(ptr noundef %53, ptr noundef %57, i64 noundef 48) #8
  store i32 %58, ptr %11, align 4, !tbaa !9
  br label %67

59:                                               ; preds = %36
  %60 = getelementptr inbounds [64 x i8], ptr %10, i64 0, i64 0
  %61 = load i32, ptr %9, align 4, !tbaa !9
  %62 = sext i32 %61 to i64
  %63 = getelementptr inbounds [2 x [64 x i8]], ptr @test_hash_sha3_512, i64 0, i64 %62
  %64 = getelementptr inbounds [64 x i8], ptr %63, i64 0, i64 0
  %65 = call i32 @memcmp(ptr noundef %60, ptr noundef %64, i64 noundef 64) #8
  store i32 %65, ptr %11, align 4, !tbaa !9
  br label %67

66:                                               ; preds = %36
  br label %67

67:                                               ; preds = %66, %59, %52, %45, %38
  %68 = load i32, ptr %11, align 4, !tbaa !9
  %69 = icmp ne i32 0, %68
  br i1 %69, label %70, label %78

70:                                               ; preds = %67
  %71 = load i32, ptr %6, align 4, !tbaa !9
  %72 = icmp ne i32 %71, 0
  br i1 %72, label %73, label %77

73:                                               ; preds = %70
  %74 = load ptr, ptr %7, align 8, !tbaa !17
  %75 = load i32, ptr %9, align 4, !tbaa !9
  %76 = call i32 (ptr, ...) @printf(ptr noundef @.str.6, ptr noundef %74, i32 noundef %75)
  br label %77

77:                                               ; preds = %73, %70
  store i32 -1, ptr %5, align 4
  store i32 1, ptr %12, align 4
  br label %86

78:                                               ; preds = %67
  %79 = load i32, ptr %6, align 4, !tbaa !9
  %80 = icmp ne i32 %79, 0
  br i1 %80, label %81, label %85

81:                                               ; preds = %78
  %82 = load ptr, ptr %7, align 8, !tbaa !17
  %83 = load i32, ptr %9, align 4, !tbaa !9
  %84 = call i32 (ptr, ...) @printf(ptr noundef @.str.7, ptr noundef %82, i32 noundef %83)
  br label %85

85:                                               ; preds = %81, %78
  store i32 0, ptr %5, align 4
  store i32 1, ptr %12, align 4
  br label %86

86:                                               ; preds = %85, %77, %34
  call void @llvm.lifetime.end.p0(i64 4, ptr %11) #7
  call void @llvm.lifetime.end.p0(i64 64, ptr %10) #7
  %87 = load i32, ptr %5, align 4
  ret i32 %87
}