; Function Attrs: nounwind uwtable
define internal fastcc range(i32 -118, 1) i32 @mbedtls_sha3_kat_test(i32 noundef %0, ptr noundef %1, i32 noundef range(i32 1, 5) %2, i32 noundef range(i32 0, 2) %3) unnamed_addr #2 {
switch.lookup:
  %4 = alloca %struct.mbedtls_sha3_context, align 8
  %5 = alloca [64 x i8], align 16
  call void @llvm.lifetime.start.p0(i64 64, ptr nonnull %5) #12
  %6 = zext nneg i32 %3 to i64
  %7 = getelementptr inbounds nuw [2 x [4 x i8]], ptr @test_data, i64 0, i64 %6
  %8 = getelementptr inbounds nuw [2 x i64], ptr @test_data_len, i64 0, i64 %6
  %9 = load i64, ptr %8, align 8, !tbaa !15
  call void @llvm.lifetime.start.p0(i64 208, ptr nonnull %4) #12
  %switch.tableidx = add nsw i32 %2, -1
  %switch.cast = zext i32 %switch.tableidx to i64
  %switch.shiftamt = shl nuw nsw i64 %switch.cast, 4
  %switch.downshift = lshr i64 18014604670009372, %switch.shiftamt
  %switch.masked = trunc i64 %switch.downshift to i16
  %switch.cast32 = zext i32 %switch.tableidx to i64
  %switch.shiftamt33 = shl nuw nsw i64 %switch.cast32, 4
  %switch.downshift34 = lshr i64 20266645008679056, %switch.shiftamt33
  %switch.masked35 = trunc i64 %switch.downshift34 to i16
  %10 = getelementptr inbounds nuw i8, ptr %4, i64 204
  store i16 %switch.masked, ptr %10, align 4, !tbaa !11
  %11 = getelementptr inbounds nuw i8, ptr %4, i64 206
  store i16 %switch.masked35, ptr %11, align 2, !tbaa !13
  call void @llvm.memset.p0.i64(ptr noundef nonnull align 8 dereferenceable(204) %4, i8 0, i64 204, i1 false)
  %12 = call i32 @mbedtls_sha3_update(ptr noundef nonnull %4, ptr noundef nonnull readonly %7, i64 noundef %9)
  %13 = call i32 @mbedtls_sha3_finish(ptr noundef nonnull %4, ptr noundef nonnull %5, i64 noundef 64)
  call void @mbedtls_platform_zeroize(ptr noundef nonnull %4, i64 noundef 208) #12
  call void @llvm.lifetime.end.p0(i64 208, ptr nonnull %4) #12
  %.not = icmp eq i32 %13, 0
  br i1 %.not, label %17, label %14

default.unreachable31:                            ; preds = %17
  unreachable

14:                                               ; preds = %switch.lookup
  %.not26 = icmp eq i32 %0, 0
  br i1 %.not26, label %37, label %15

15:                                               ; preds = %14
  %16 = call i32 (ptr, ...) @printf(ptr noundef nonnull dereferenceable(1) @.str.5, ptr noundef %1, i32 noundef %3, i32 noundef %13)
  br label %37

17:                                               ; preds = %switch.lookup
  switch i32 %2, label %default.unreachable31 [
    i32 1, label %18
    i32 2, label %21
    i32 3, label %24
    i32 4, label %27
  ]

18:                                               ; preds = %17
  %19 = getelementptr inbounds nuw [2 x [28 x i8]], ptr @test_hash_sha3_224, i64 0, i64 %6
  %20 = call i32 @memcmp(ptr noundef nonnull dereferenceable(28) %5, ptr noundef nonnull dereferenceable(28) %19, i64 noundef 28) #13
  br label %30

21:                                               ; preds = %17
  %22 = getelementptr inbounds nuw [2 x [32 x i8]], ptr @test_hash_sha3_256, i64 0, i64 %6
  %23 = call i32 @memcmp(ptr noundef nonnull dereferenceable(32) %5, ptr noundef nonnull dereferenceable(32) %22, i64 noundef 32) #13
  br label %30

24:                                               ; preds = %17
  %25 = getelementptr inbounds nuw [2 x [48 x i8]], ptr @test_hash_sha3_384, i64 0, i64 %6
  %26 = call i32 @memcmp(ptr noundef nonnull dereferenceable(48) %5, ptr noundef nonnull dereferenceable(48) %25, i64 noundef 48) #13
  br label %30

27:                                               ; preds = %17
  %28 = getelementptr inbounds nuw [2 x [64 x i8]], ptr @test_hash_sha3_512, i64 0, i64 %6
  %29 = call i32 @memcmp(ptr noundef nonnull dereferenceable(64) %5, ptr noundef nonnull dereferenceable(64) %28, i64 noundef 64) #13
  br label %30

30:                                               ; preds = %27, %24, %21, %18
  %.0 = phi i32 [ %29, %27 ], [ %26, %24 ], [ %23, %21 ], [ %20, %18 ]
  %.not23 = icmp eq i32 %.0, 0
  %.not24 = icmp eq i32 %0, 0
  br i1 %.not23, label %34, label %31

31:                                               ; preds = %30
  br i1 %.not24, label %37, label %32

32:                                               ; preds = %31
  %33 = call i32 (ptr, ...) @printf(ptr noundef nonnull dereferenceable(1) @.str.6, ptr noundef %1, i32 noundef %3)
  br label %37

34:                                               ; preds = %30
  br i1 %.not24, label %37, label %35

35:                                               ; preds = %34
  %36 = call i32 (ptr, ...) @printf(ptr noundef nonnull dereferenceable(1) @.str.7, ptr noundef %1, i32 noundef %3)
  br label %37

37:                                               ; preds = %34, %35, %31, %32, %14, %15
  %.021 = phi i32 [ %13, %15 ], [ %13, %14 ], [ -1, %32 ], [ -1, %31 ], [ 0, %35 ], [ 0, %34 ]
  call void @llvm.lifetime.end.p0(i64 64, ptr nonnull %5) #12
  ret i32 %.021
}